target datalayout = "e-m:e-p270:32:32-p271:32:32-p272:64:64-i64:64-i128:128-f80:128-n8:16:32:64-S128"
target triple = "x86_64-pc-linux-gnu"

%struct.POINT = type { i64, i64 }
%struct.RECT = type { i64, i64, i64, i64 }

@left = global i64 10, align 8
@right = global i64 30, align 8

; Function Attrs: nounwind uwtable
define void @ReturnRect(ptr dead_on_unwind noalias writable sret(%struct.RECT) align 8 %0, i32 noundef %1, ptr noundef byval(%struct.RECT) align 8 %2, ptr noundef %3, i64 %4, i64 %5, ptr noundef byval(%struct.RECT) align 8 %6, ptr noundef %7, ptr noundef byval(%struct.POINT) align 8 %8, ptr noundef byval(%struct.RECT) align 8 %9) #0 {
  %11 = alloca %struct.POINT, align 8
  %12 = alloca i32, align 4
  %13 = alloca ptr, align 8
  %14 = alloca ptr, align 8
  %15 = getelementptr inbounds nuw { i64, i64 }, ptr %11, i32 0, i32 0
  store i64 %4, ptr %15, align 8
  %16 = getelementptr inbounds nuw { i64, i64 }, ptr %11, i32 0, i32 1
  store i64 %5, ptr %16, align 8
  store i32 %1, ptr %12, align 4, !tbaa !3
  store ptr %3, ptr %13, align 8, !tbaa !7
  store ptr %7, ptr %14, align 8, !tbaa !7
  %17 = getelementptr inbounds nuw %struct.RECT, ptr %2, i32 0, i32 0
  %18 = load i64, ptr %17, align 8, !tbaa !78
  %19 = load ptr, ptr %13, align 8, !tbaa !7
  %20 = getelementptr inbounds nuw %struct.RECT, ptr %19, i32 0, i32 0
  %21 = load i64, ptr %20, align 8, !tbaa !78
  %22 = add i64 %18, %21
  %23 = getelementptr inbounds nuw %struct.RECT, ptr %6, i32 0, i32 0
  %24 = load i64, ptr %23, align 8, !tbaa !78
  %25 = add i64 %22, %24
  %26 = load ptr, ptr %14, align 8, !tbaa !7
  %27 = getelementptr inbounds nuw %struct.RECT, ptr %26, i32 0, i32 0
  %28 = load i64, ptr %27, align 8, !tbaa !78
  %29 = add i64 %25, %28
  %30 = getelementptr inbounds nuw %struct.RECT, ptr %9, i32 0, i32 0
  %31 = load i64, ptr %30, align 8, !tbaa !78
  %32 = add i64 %29, %31
  %33 = load i64, ptr @left, align 8, !tbaa !35
  %34 = mul i64 %33, 5
  %35 = icmp ne i64 %32, %34
  br i1 %35, label %36, label %38

36:                                               ; preds = %10
  %37 = getelementptr inbounds nuw %struct.RECT, ptr %2, i32 0, i32 0
  store i64 100, ptr %37, align 8, !tbaa !78
  call void @llvm.memcpy.p0.p0.i64(ptr align 8 %0, ptr align 8 %2, i64 32, i1 false), !tbaa.struct !84
  br label %82

38:                                               ; preds = %10
  %39 = getelementptr inbounds nuw %struct.RECT, ptr %2, i32 0, i32 2
  %40 = load i64, ptr %39, align 8, !tbaa !80
  %41 = load ptr, ptr %13, align 8, !tbaa !7
  %42 = getelementptr inbounds nuw %struct.RECT, ptr %41, i32 0, i32 2
  %43 = load i64, ptr %42, align 8, !tbaa !80
  %44 = add i64 %40, %43
  %45 = getelementptr inbounds nuw %struct.RECT, ptr %6, i32 0, i32 2
  %46 = load i64, ptr %45, align 8, !tbaa !80
  %47 = add i64 %44, %46
  %48 = load ptr, ptr %14, align 8, !tbaa !7
  %49 = getelementptr inbounds nuw %struct.RECT, ptr %48, i32 0, i32 2
  %50 = load i64, ptr %49, align 8, !tbaa !80
  %51 = add i64 %47, %50
  %52 = getelementptr inbounds nuw %struct.RECT, ptr %9, i32 0, i32 2
  %53 = load i64, ptr %52, align 8, !tbaa !80
  %54 = add i64 %51, %53
  %55 = load i64, ptr @right, align 8, !tbaa !35
  %56 = mul i64 %55, 5
  %57 = icmp ne i64 %54, %56
  br i1 %57, label %58, label %60

58:                                               ; preds = %38
  %59 = getelementptr inbounds nuw %struct.RECT, ptr %2, i32 0, i32 2
  store i64 100, ptr %59, align 8, !tbaa !80
  call void @llvm.memcpy.p0.p0.i64(ptr align 8 %0, ptr align 8 %2, i64 32, i1 false), !tbaa.struct !84
  br label %82

60:                                               ; preds = %38
  %61 = getelementptr inbounds nuw %struct.POINT, ptr %11, i32 0, i32 0
  %62 = load i64, ptr %61, align 8, !tbaa !76
  %63 = getelementptr inbounds nuw %struct.POINT, ptr %8, i32 0, i32 0
  %64 = load i64, ptr %63, align 8, !tbaa !76
  %65 = icmp ne i64 %62, %64
  br i1 %65, label %66, label %68

66:                                               ; preds = %60
  %67 = getelementptr inbounds nuw %struct.RECT, ptr %2, i32 0, i32 0
  store i64 -100, ptr %67, align 8, !tbaa !78
  br label %68

68:                                               ; preds = %66, %60
  %69 = getelementptr inbounds nuw %struct.POINT, ptr %11, i32 0, i32 1
  %70 = load i64, ptr %69, align 8, !tbaa !81
  %71 = getelementptr inbounds nuw %struct.POINT, ptr %8, i32 0, i32 1
  %72 = load i64, ptr %71, align 8, !tbaa !81
  %73 = icmp ne i64 %70, %72
  br i1 %73, label %74, label %76

74:                                               ; preds = %68
  %75 = getelementptr inbounds nuw %struct.RECT, ptr %2, i32 0, i32 0
  store i64 -200, ptr %75, align 8, !tbaa !78
  br label %76

76:                                               ; preds = %74, %68
  %77 = load i32, ptr %12, align 4, !tbaa !3
  switch i32 %77, label %81 [
    i32 0, label %78
    i32 1, label %79
    i32 2, label %80
  ]

78:                                               ; preds = %76
  call void @llvm.memcpy.p0.p0.i64(ptr align 8 %0, ptr align 8 %2, i64 32, i1 false), !tbaa.struct !84
  br label %82

79:                                               ; preds = %76
  call void @llvm.memcpy.p0.p0.i64(ptr align 8 %0, ptr align 8 %6, i64 32, i1 false), !tbaa.struct !84
  br label %82

80:                                               ; preds = %76
  call void @llvm.memcpy.p0.p0.i64(ptr align 8 %0, ptr align 8 %9, i64 32, i1 false), !tbaa.struct !84
  br label %82

81:                                               ; preds = %76
  call void @llvm.memcpy.p0.p0.i64(ptr align 8 %0, ptr align 8 %2, i64 32, i1 false), !tbaa.struct !84
  br label %82

82:                                               ; preds = %81, %80, %79, %78, %58, %36
  ret void
}