; Function Attrs: mustprogress nofree norecurse nosync nounwind willreturn memory(readwrite, inaccessiblemem: none) uwtable
define void @ReturnRect(ptr dead_on_unwind noalias writable writeonly sret(%struct.RECT) align 8 captures(none) initializes((0, 32)) %0, i32 noundef %1, ptr noundef byval(%struct.RECT) align 8 captures(none) %2, ptr noundef readonly captures(none) %3, i64 %4, i64 %5, ptr noundef readonly byval(%struct.RECT) align 8 captures(none) %6, ptr noundef readonly captures(none) %7, ptr noundef readonly byval(%struct.POINT) align 8 captures(none) %8, ptr noundef readonly byval(%struct.RECT) align 8 captures(none) %9) local_unnamed_addr #32 {
  %11 = load i64, ptr %2, align 8, !tbaa !62
  %12 = load i64, ptr %3, align 8, !tbaa !62
  %13 = add i64 %12, %11
  %14 = load i64, ptr %6, align 8, !tbaa !62
  %15 = add i64 %13, %14
  %16 = load i64, ptr %7, align 8, !tbaa !62
  %17 = add i64 %15, %16
  %18 = load i64, ptr %9, align 8, !tbaa !62
  %19 = add i64 %17, %18
  %20 = load i64, ptr @left, align 8, !tbaa !39
  %21 = mul i64 %20, 5
  %.not = icmp eq i64 %19, %21
  br i1 %.not, label %23, label %22

22:                                               ; preds = %10
  store i64 100, ptr %2, align 8, !tbaa !62
  br label %51

23:                                               ; preds = %10
  %24 = getelementptr inbounds nuw i8, ptr %2, i64 16
  %25 = load i64, ptr %24, align 8, !tbaa !64
  %26 = getelementptr inbounds nuw i8, ptr %3, i64 16
  %27 = load i64, ptr %26, align 8, !tbaa !64
  %28 = add i64 %27, %25
  %29 = getelementptr inbounds nuw i8, ptr %6, i64 16
  %30 = load i64, ptr %29, align 8, !tbaa !64
  %31 = add i64 %28, %30
  %32 = getelementptr inbounds nuw i8, ptr %7, i64 16
  %33 = load i64, ptr %32, align 8, !tbaa !64
  %34 = add i64 %31, %33
  %35 = getelementptr inbounds nuw i8, ptr %9, i64 16
  %36 = load i64, ptr %35, align 8, !tbaa !64
  %37 = add i64 %34, %36
  %38 = load i64, ptr @right, align 8, !tbaa !39
  %39 = mul i64 %38, 5
  %.not4 = icmp eq i64 %37, %39
  br i1 %.not4, label %41, label %40

40:                                               ; preds = %23
  store i64 100, ptr %24, align 8, !tbaa !64
  br label %51

41:                                               ; preds = %23
  %42 = load i64, ptr %8, align 8, !tbaa !67
  %.not5 = icmp eq i64 %4, %42
  br i1 %.not5, label %44, label %43

43:                                               ; preds = %41
  store i64 -100, ptr %2, align 8, !tbaa !62
  br label %44

44:                                               ; preds = %43, %41
  %45 = getelementptr inbounds nuw i8, ptr %8, i64 8
  %46 = load i64, ptr %45, align 8, !tbaa !69
  %.not6 = icmp eq i64 %5, %46
  br i1 %.not6, label %48, label %47

47:                                               ; preds = %44
  store i64 -200, ptr %2, align 8, !tbaa !62
  br label %48

48:                                               ; preds = %47, %44
  switch i32 %1, label %50 [
    i32 2, label %49
    i32 1, label %51
  ]

49:                                               ; preds = %48
  br label %51

50:                                               ; preds = %48
  br label %51

51:                                               ; preds = %48, %50, %49, %40, %22
  %.sink = phi ptr [ %2, %50 ], [ %9, %49 ], [ %2, %40 ], [ %2, %22 ], [ %6, %48 ]
  call void @llvm.memcpy.p0.p0.i64(ptr noundef nonnull align 8 dereferenceable(32) %0, ptr noundef nonnull align 8 dereferenceable(32) %.sink, i64 32, i1 false)
  ret void
}